(lp1
(dp2
Vretries
p3
I0
sVargs
p4
V(10,)
p5
sVuuid
p6
V10471953-fd35-4f30-98dc-5f0a0d0b6f09
p7
sVclock
p8
I302
sVtimestamp
p9
F1308951880.128125
sVexpires
p10
NsVeta
p11
NsVkwargs
p12
V{}
p13
sS'type'
p14
Vtask-received
p15
sVhostname
p16
Vkjamistan
p17
sVname
p18
Vnew_aggregate.populate_queue
p19
sa.